target datalayout = "e-m:e-p270:32:32-p271:32:32-p272:64:64-i64:64-i128:128-f80:128-n8:16:32:64-S128"
target triple = "x86_64-pc-linux-gnu"

%class.CodeBlob = type <{ ptr, ptr, ptr, i32, i32, i32, i32, i32, i32, i16, i16, i8, i8, [2 x i8] }>

@.str.83 = private unnamed_addr constant [16 x i8] c"[Constant Pool]\00", align 1
@.str.84 = private unnamed_addr constant [28 x i8] c"[Constant Pool (unaligned)]\00", align 1
@.str.85 = private unnamed_addr constant [23 x i8] c"[Code entry alignment]\00", align 1
@.str.86 = private unnamed_addr constant [24 x i8] c"[Constant Pool (empty)]\00", align 1

; Function Attrs: mustprogress nounwind uwtable
define linkonce_odr hidden noundef ptr @_ZNK8CodeBlob12header_beginEv(ptr noundef nonnull align 8 dereferenceable(54) %0) #1 comdat align 2 {
  %2 = alloca ptr, align 8
  store ptr %0, ptr %2, align 8
  %3 = load ptr, ptr %2, align 8
  ret ptr %3
}

; Function Attrs: mustprogress nounwind uwtable
define linkonce_odr hidden noundef ptr @_ZNK8CodeBlob13content_beginEv(ptr noundef nonnull align 8 dereferenceable(54) %0) #1 comdat align 2 {
  %2 = alloca ptr, align 8
  store ptr %0, ptr %2, align 8
  %3 = load ptr, ptr %2, align 8
  %4 = call noundef ptr @_ZNK8CodeBlob12header_beginEv(ptr noundef nonnull align 8 dereferenceable(54) %3)
  %5 = getelementptr inbounds %class.CodeBlob, ptr %3, i32 0, i32 5
  %6 = load i32, ptr %5, align 8
  %7 = sext i32 %6 to i64
  %8 = getelementptr inbounds i8, ptr %4, i64 %7
  ret ptr %8
}

; Function Attrs: mustprogress nounwind uwtable
define linkonce_odr hidden noundef ptr @_ZNK7nmethod10consts_endEv(ptr noundef nonnull align 8 dereferenceable(214) %0) #1 comdat align 2 {
  %2 = alloca ptr, align 8
  store ptr %0, ptr %2, align 8
  %3 = load ptr, ptr %2, align 8
  %4 = call noundef ptr @_ZNK8CodeBlob10code_beginEv(ptr noundef nonnull align 8 dereferenceable(54) %3)
  ret ptr %4
}

; Function Attrs: mustprogress nounwind uwtable
define linkonce_odr hidden noundef ptr @_ZNK8CodeBlob10code_beginEv(ptr noundef nonnull align 8 dereferenceable(54) %0) #1 comdat align 2 {
  %2 = alloca ptr, align 8
  store ptr %0, ptr %2, align 8
  %3 = load ptr, ptr %2, align 8
  %4 = call noundef ptr @_ZNK8CodeBlob12header_beginEv(ptr noundef nonnull align 8 dereferenceable(54) %3)
  %5 = getelementptr inbounds %class.CodeBlob, ptr %3, i32 0, i32 6
  %6 = load i32, ptr %5, align 4
  %7 = sext i32 %6 to i64
  %8 = getelementptr inbounds i8, ptr %4, i64 %7
  ret ptr %8
}

; Function Attrs: mustprogress nounwind uwtable
define linkonce_odr hidden noundef ptr @_ZNK7nmethod12consts_beginEv(ptr noundef nonnull align 8 dereferenceable(214) %0) #1 comdat align 2 {
  %2 = alloca ptr, align 8
  store ptr %0, ptr %2, align 8
  %3 = load ptr, ptr %2, align 8
  %4 = call noundef ptr @_ZNK8CodeBlob13content_beginEv(ptr noundef nonnull align 8 dereferenceable(54) %3)
  ret ptr %4
}

; Function Attrs: mustprogress nounwind uwtable
define linkonce_odr hidden noundef i32 @_ZNK7nmethod11consts_sizeEv(ptr noundef nonnull align 8 dereferenceable(214) %0) #1 comdat align 2 {
  %2 = alloca ptr, align 8
  store ptr %0, ptr %2, align 8
  %3 = load ptr, ptr %2, align 8
  %4 = call noundef ptr @_ZNK7nmethod10consts_endEv(ptr noundef nonnull align 8 dereferenceable(214) %3)
  %5 = call noundef ptr @_ZNK7nmethod12consts_beginEv(ptr noundef nonnull align 8 dereferenceable(214) %3)
  %6 = ptrtoint ptr %4 to i64
  %7 = ptrtoint ptr %5 to i64
  %8 = sub i64 %6, %7
  %9 = trunc i64 %8 to i32
  ret i32 %9
}

; Function Attrs: mustprogress nounwind uwtable
define hidden void @_ZN7nmethod19print_constant_poolEP12outputStream(ptr noundef nonnull align 8 dereferenceable(214) %0, ptr noundef %1) #1 align 2 {
  %3 = alloca ptr, align 8
  %4 = alloca ptr, align 8
  %5 = alloca i32, align 4
  %6 = alloca ptr, align 8
  %7 = alloca ptr, align 8
  %8 = alloca ptr, align 8
  %9 = alloca i32, align 4
  %10 = alloca i32, align 4
  %11 = alloca i32, align 4
  store ptr %0, ptr %3, align 8
  store ptr %1, ptr %4, align 8
  %12 = load ptr, ptr %3, align 8
  %13 = call noundef i32 @_ZNK7nmethod11consts_sizeEv(ptr noundef nonnull align 8 dereferenceable(214) %12)
  store i32 %13, ptr %5, align 4
  %14 = load i32, ptr %5, align 4
  %15 = icmp sgt i32 %14, 0
  br i1 %15, label %16, label %98

16:                                               ; preds = %2
  %17 = call noundef ptr @_ZNK7nmethod12consts_beginEv(ptr noundef nonnull align 8 dereferenceable(214) %12)
  store ptr %17, ptr %6, align 8
  %18 = load ptr, ptr %6, align 8
  store ptr %18, ptr %7, align 8
  %19 = load ptr, ptr %7, align 8
  %20 = load i32, ptr %5, align 4
  %21 = sext i32 %20 to i64
  %22 = getelementptr inbounds i8, ptr %19, i64 %21
  store ptr %22, ptr %8, align 8
  store i32 4, ptr %9, align 4
  store i32 8, ptr %10, align 4
  %23 = load ptr, ptr %4, align 8
  call void @_ZN12outputStream2crEv(ptr noundef nonnull align 8 dereferenceable(56) %23)
  %24 = load ptr, ptr %7, align 8
  %25 = ptrtoint ptr %24 to i64
  %26 = load i32, ptr %10, align 4
  %27 = sub i32 %26, 1
  %28 = zext i32 %27 to i64
  %29 = and i64 %25, %28
  %30 = icmp eq i64 %29, 0
  br i1 %30, label %31, label %44

31:                                               ; preds = %16
  %32 = load i32, ptr %9, align 4
  store i32 %32, ptr %11, align 4
  %33 = load ptr, ptr %4, align 8
  call void (ptr, ptr, ...) @_ZN12outputStream8print_crEPKcz(ptr noundef nonnull align 8 dereferenceable(56) %33, ptr noundef @.str.83)
  %34 = load ptr, ptr %7, align 8
  %35 = load ptr, ptr %6, align 8
  %36 = load ptr, ptr %8, align 8
  %37 = load ptr, ptr %4, align 8
  %38 = call noundef i32 @_ZN20AbstractDisassembler14print_locationEPhS0_S0_P12outputStreambb(ptr noundef %34, ptr noundef %35, ptr noundef %36, ptr noundef %37, i1 noundef zeroext true, i1 noundef zeroext true)
  %39 = load ptr, ptr %7, align 8
  %40 = load i32, ptr %11, align 4
  %41 = load ptr, ptr %4, align 8
  %42 = call noundef i32 @_ZN20AbstractDisassembler13print_hexdataEPhiP12outputStreamb(ptr noundef %39, i32 noundef %40, ptr noundef %41, i1 noundef zeroext true)
  %43 = load ptr, ptr %4, align 8
  call void @_ZN12outputStream2crEv(ptr noundef nonnull align 8 dereferenceable(56) %43)
  br label %53

44:                                               ; preds = %16
  %45 = load ptr, ptr %7, align 8
  %46 = ptrtoint ptr %45 to i64
  %47 = load i32, ptr %9, align 4
  %48 = sub i32 %47, 1
  %49 = zext i32 %48 to i64
  %50 = and i64 %46, %49
  %51 = trunc i64 %50 to i32
  store i32 %51, ptr %11, align 4
  %52 = load ptr, ptr %4, align 8
  call void (ptr, ptr, ...) @_ZN12outputStream8print_crEPKcz(ptr noundef nonnull align 8 dereferenceable(56) %52, ptr noundef @.str.84)
  br label %53

53:                                               ; preds = %44, %31
  br label %54

54:                                               ; preds = %58, %53
  %55 = load ptr, ptr %7, align 8
  %56 = load ptr, ptr %8, align 8
  %57 = icmp ult ptr %55, %56
  br i1 %57, label %58, label %74

58:                                               ; preds = %54
  %59 = load ptr, ptr %7, align 8
  %60 = load ptr, ptr %6, align 8
  %61 = load ptr, ptr %8, align 8
  %62 = load ptr, ptr %4, align 8
  %63 = call noundef i32 @_ZN20AbstractDisassembler14print_locationEPhS0_S0_P12outputStreambb(ptr noundef %59, ptr noundef %60, ptr noundef %61, ptr noundef %62, i1 noundef zeroext true, i1 noundef zeroext false)
  %64 = load ptr, ptr %7, align 8
  %65 = load i32, ptr %11, align 4
  %66 = load ptr, ptr %4, align 8
  %67 = call noundef i32 @_ZN20AbstractDisassembler13print_hexdataEPhiP12outputStreamb(ptr noundef %64, i32 noundef %65, ptr noundef %66, i1 noundef zeroext false)
  %68 = load i32, ptr %11, align 4
  %69 = load ptr, ptr %7, align 8
  %70 = zext i32 %68 to i64
  %71 = getelementptr inbounds i8, ptr %69, i64 %70
  store ptr %71, ptr %7, align 8
  %72 = load i32, ptr %9, align 4
  store i32 %72, ptr %11, align 4
  %73 = load ptr, ptr %4, align 8
  call void @_ZN12outputStream2crEv(ptr noundef nonnull align 8 dereferenceable(56) %73)
  br label %54, !llvm.loop !53

74:                                               ; preds = %54
  %75 = call noundef ptr @_ZNK8CodeBlob10code_beginEv(ptr noundef nonnull align 8 dereferenceable(54) %12)
  store ptr %75, ptr %8, align 8
  %76 = load ptr, ptr %7, align 8
  %77 = load ptr, ptr %8, align 8
  %78 = icmp ult ptr %76, %77
  br i1 %78, label %79, label %97

79:                                               ; preds = %74
  store i32 4, ptr %11, align 4
  %80 = load ptr, ptr %4, align 8
  call void (ptr, ptr, ...) @_ZN12outputStream8print_crEPKcz(ptr noundef nonnull align 8 dereferenceable(56) %80, ptr noundef @.str.85)
  br label %81

81:                                               ; preds = %85, %79
  %82 = load ptr, ptr %7, align 8
  %83 = load ptr, ptr %8, align 8
  %84 = icmp ult ptr %82, %83
  br i1 %84, label %85, label %96

85:                                               ; preds = %81
  %86 = load ptr, ptr %7, align 8
  %87 = load ptr, ptr %6, align 8
  %88 = load ptr, ptr %8, align 8
  %89 = load ptr, ptr %4, align 8
  %90 = call noundef i32 @_ZN20AbstractDisassembler14print_locationEPhS0_S0_P12outputStreambb(ptr noundef %86, ptr noundef %87, ptr noundef %88, ptr noundef %89, i1 noundef zeroext false, i1 noundef zeroext false)
  %91 = load i32, ptr %11, align 4
  %92 = load ptr, ptr %7, align 8
  %93 = zext i32 %91 to i64
  %94 = getelementptr inbounds i8, ptr %92, i64 %93
  store ptr %94, ptr %7, align 8
  %95 = load ptr, ptr %4, align 8
  call void @_ZN12outputStream2crEv(ptr noundef nonnull align 8 dereferenceable(56) %95)
  br label %81, !llvm.loop !54

96:                                               ; preds = %81
  br label %97

97:                                               ; preds = %96, %74
  br label %100

98:                                               ; preds = %2
  %99 = load ptr, ptr %4, align 8
  call void (ptr, ptr, ...) @_ZN12outputStream8print_crEPKcz(ptr noundef nonnull align 8 dereferenceable(56) %99, ptr noundef @.str.86)
  br label %100

100:                                              ; preds = %98, %97
  %101 = load ptr, ptr %4, align 8
  call void @_ZN12outputStream2crEv(ptr noundef nonnull align 8 dereferenceable(56) %101)
  ret void
}