; Function Attrs: mustprogress nounwind uwtable
define hidden void @_ZN7nmethod19print_constant_poolEP12outputStream(ptr noundef nonnull align 8 dereferenceable(214) %0, ptr noundef %1) local_unnamed_addr #0 align 2 {
  %3 = getelementptr inbounds i8, ptr %0, i64 36
  %4 = load i32, ptr %3, align 4
  %5 = getelementptr inbounds i8, ptr %0, i64 32
  %6 = load i32, ptr %5, align 8
  %gepdiff.i = sub i32 %4, %6
  %7 = icmp sgt i32 %gepdiff.i, 0
  br i1 %7, label %8, label %36

8:                                                ; preds = %2
  %9 = sext i32 %6 to i64
  %10 = getelementptr inbounds i8, ptr %0, i64 %9
  %11 = zext nneg i32 %gepdiff.i to i64
  %12 = getelementptr inbounds i8, ptr %10, i64 %11
  tail call void @_ZN12outputStream2crEv(ptr noundef nonnull align 8 dereferenceable(56) %1) #23
  %13 = ptrtoint ptr %10 to i64
  %14 = and i64 %13, 7
  %15 = icmp eq i64 %14, 0
  br i1 %15, label %16, label %19

16:                                               ; preds = %8
  tail call void (ptr, ptr, ...) @_ZN12outputStream8print_crEPKcz(ptr noundef nonnull align 8 dereferenceable(56) %1, ptr noundef nonnull @.str.83) #23
  %17 = tail call noundef i32 @_ZN20AbstractDisassembler14print_locationEPhS0_S0_P12outputStreambb(ptr noundef nonnull %10, ptr noundef nonnull %10, ptr noundef nonnull %12, ptr noundef nonnull %1, i1 noundef zeroext true, i1 noundef zeroext true) #23
  %18 = tail call noundef i32 @_ZN20AbstractDisassembler13print_hexdataEPhiP12outputStreamb(ptr noundef nonnull %10, i32 noundef 4, ptr noundef nonnull %1, i1 noundef zeroext true) #23
  tail call void @_ZN12outputStream2crEv(ptr noundef nonnull align 8 dereferenceable(56) %1) #23
  br label %.lr.ph.preheader

19:                                               ; preds = %8
  %20 = trunc i64 %13 to i32
  %21 = and i32 %20, 3
  tail call void (ptr, ptr, ...) @_ZN12outputStream8print_crEPKcz(ptr noundef nonnull align 8 dereferenceable(56) %1, ptr noundef nonnull @.str.84) #23
  br label %.lr.ph.preheader

.lr.ph.preheader:                                 ; preds = %16, %19
  %.153.ph = phi i32 [ %21, %19 ], [ 4, %16 ]
  br label %.lr.ph

.lr.ph:                                           ; preds = %.lr.ph.preheader, %.lr.ph
  %.153 = phi i32 [ 4, %.lr.ph ], [ %.153.ph, %.lr.ph.preheader ]
  %.04752 = phi ptr [ %25, %.lr.ph ], [ %10, %.lr.ph.preheader ]
  %22 = tail call noundef i32 @_ZN20AbstractDisassembler14print_locationEPhS0_S0_P12outputStreambb(ptr noundef %.04752, ptr noundef nonnull %10, ptr noundef nonnull %12, ptr noundef nonnull %1, i1 noundef zeroext true, i1 noundef zeroext false) #23
  %23 = tail call noundef i32 @_ZN20AbstractDisassembler13print_hexdataEPhiP12outputStreamb(ptr noundef %.04752, i32 noundef %.153, ptr noundef nonnull %1, i1 noundef zeroext false) #23
  %24 = zext nneg i32 %.153 to i64
  %25 = getelementptr inbounds i8, ptr %.04752, i64 %24
  tail call void @_ZN12outputStream2crEv(ptr noundef nonnull align 8 dereferenceable(56) %1) #23
  %26 = icmp ult ptr %25, %12
  br i1 %26, label %.lr.ph, label %._crit_edge, !llvm.loop !98

._crit_edge:                                      ; preds = %.lr.ph
  %27 = load i32, ptr %3, align 4
  %28 = sext i32 %27 to i64
  %29 = getelementptr inbounds i8, ptr %0, i64 %28
  %30 = icmp ult ptr %25, %29
  br i1 %30, label %31, label %.loopexit

31:                                               ; preds = %._crit_edge
  tail call void (ptr, ptr, ...) @_ZN12outputStream8print_crEPKcz(ptr noundef nonnull align 8 dereferenceable(56) %1, ptr noundef nonnull @.str.85) #23
  br label %32

32:                                               ; preds = %31, %32
  %.14854 = phi ptr [ %25, %31 ], [ %34, %32 ]
  %33 = tail call noundef i32 @_ZN20AbstractDisassembler14print_locationEPhS0_S0_P12outputStreambb(ptr noundef %.14854, ptr noundef nonnull %10, ptr noundef nonnull %29, ptr noundef nonnull %1, i1 noundef zeroext false, i1 noundef zeroext false) #23
  %34 = getelementptr inbounds i8, ptr %.14854, i64 4
  tail call void @_ZN12outputStream2crEv(ptr noundef nonnull align 8 dereferenceable(56) %1) #23
  %35 = icmp ult ptr %34, %29
  br i1 %35, label %32, label %.loopexit, !llvm.loop !99

36:                                               ; preds = %2
  tail call void (ptr, ptr, ...) @_ZN12outputStream8print_crEPKcz(ptr noundef nonnull align 8 dereferenceable(56) %1, ptr noundef nonnull @.str.86) #23
  br label %.loopexit

.loopexit:                                        ; preds = %32, %._crit_edge, %36
  tail call void @_ZN12outputStream2crEv(ptr noundef nonnull align 8 dereferenceable(56) %1) #23
  ret void
}